#include <math.h>
#include <stdio.h>
#include <stdlib.h>
#include <string.h>

int main()
{
 int n,m,i,j,d,k;
 char c[2][100][100]={0};
 scanf("%d",&n);
 for(i=0;i<n;i++)
  scanf("%s",c[1][i]);
 scanf("%d",&d);
 for(i=0;i<d;i++)
 {for(j=0;j<n;j++)
   for(k=0;k<n;k++)
        if(c[0][j][k]=='.'&&(c[0][j][k+1]=='@'||c[0][j][k-1]=='@'||c[0][j+1][k]=='@'||c[0][j-1][k]=='@')) c[1][j][k]='@';

  for(j=0;j<n;j++)
   for(k=0;k<n;k++)

  c[0][j][k]=c[1][j][k];
}
 i=0;
 for(j=0;j<n;j++)
  for(k=0;k<n;k++)
   if(c[0][j][k]=='@') i++;
 printf("%d",i);
}
