target datalayout = "e-m:e-p270:32:32-p271:32:32-p272:64:64-i64:64-f80:128-n8:16:32:64-S128"
target triple = "x86_64-pc-linux-gnu"

@.str = private unnamed_addr constant [3 x i8] c"%d\00", align 1
@.str.1 = private unnamed_addr constant [3 x i8] c"%s\00", align 1

; Function Attrs: noinline nounwind uwtable
define dso_local i32 @main() #0 {
  %1 = alloca i32, align 4
  %2 = alloca i32, align 4
  %3 = alloca i32, align 4
  %4 = alloca i32, align 4
  %5 = alloca i32, align 4
  %6 = alloca i32, align 4
  %7 = alloca i32, align 4
  %8 = alloca [2 x [100 x [100 x i8]]], align 16
  store i32 0, i32* %1, align 4
  %9 = bitcast [2 x [100 x [100 x i8]]]* %8 to i8*
  call void @llvm.memset.p0i8.i64(i8* align 16 %9, i8 0, i64 20000, i1 false)
  %10 = call i32 (i8*, ...) @__isoc99_scanf(i8* getelementptr inbounds ([3 x i8], [3 x i8]* @.str, i64 0, i64 0), i32* %2)
  store i32 0, i32* %4, align 4
  br label %11

11:                                               ; preds = %22, %0
  %12 = load i32, i32* %4, align 4
  %13 = load i32, i32* %2, align 4
  %14 = icmp slt i32 %12, %13
  br i1 %14, label %15, label %25

15:                                               ; preds = %11
  %16 = getelementptr inbounds [2 x [100 x [100 x i8]]], [2 x [100 x [100 x i8]]]* %8, i64 0, i64 1
  %17 = load i32, i32* %4, align 4
  %18 = sext i32 %17 to i64
  %19 = getelementptr inbounds [100 x [100 x i8]], [100 x [100 x i8]]* %16, i64 0, i64 %18
  %20 = getelementptr inbounds [100 x i8], [100 x i8]* %19, i64 0, i64 0
  %21 = call i32 (i8*, ...) @__isoc99_scanf(i8* getelementptr inbounds ([3 x i8], [3 x i8]* @.str.1, i64 0, i64 0), i8* %20)
  br label %22

22:                                               ; preds = %15
  %23 = load i32, i32* %4, align 4
  %24 = add nsw i32 %23, 1
  store i32 %24, i32* %4, align 4
  br label %11

25:                                               ; preds = %11
  %26 = call i32 (i8*, ...) @__isoc99_scanf(i8* getelementptr inbounds ([3 x i8], [3 x i8]* @.str, i64 0, i64 0), i32* %6)
  store i32 0, i32* %4, align 4
  br label %27

27:                                               ; preds = %150, %25
  %28 = load i32, i32* %4, align 4
  %29 = load i32, i32* %6, align 4
  %30 = icmp slt i32 %28, %29
  br i1 %30, label %31, label %153

31:                                               ; preds = %27
  store i32 0, i32* %5, align 4
  br label %32

32:                                               ; preds = %113, %31
  %33 = load i32, i32* %5, align 4
  %34 = load i32, i32* %2, align 4
  %35 = icmp slt i32 %33, %34
  br i1 %35, label %36, label %116

36:                                               ; preds = %32
  store i32 0, i32* %7, align 4
  br label %37

37:                                               ; preds = %109, %36
  %38 = load i32, i32* %7, align 4
  %39 = load i32, i32* %2, align 4
  %40 = icmp slt i32 %38, %39
  br i1 %40, label %41, label %112

41:                                               ; preds = %37
  %42 = getelementptr inbounds [2 x [100 x [100 x i8]]], [2 x [100 x [100 x i8]]]* %8, i64 0, i64 0
  %43 = load i32, i32* %5, align 4
  %44 = sext i32 %43 to i64
  %45 = getelementptr inbounds [100 x [100 x i8]], [100 x [100 x i8]]* %42, i64 0, i64 %44
  %46 = load i32, i32* %7, align 4
  %47 = sext i32 %46 to i64
  %48 = getelementptr inbounds [100 x i8], [100 x i8]* %45, i64 0, i64 %47
  %49 = load i8, i8* %48, align 1
  %50 = sext i8 %49 to i32
  %51 = icmp eq i32 %50, 46
  br i1 %51, label %52, label %108

52:                                               ; preds = %41
  %53 = getelementptr inbounds [2 x [100 x [100 x i8]]], [2 x [100 x [100 x i8]]]* %8, i64 0, i64 0
  %54 = load i32, i32* %5, align 4
  %55 = sext i32 %54 to i64
  %56 = getelementptr inbounds [100 x [100 x i8]], [100 x [100 x i8]]* %53, i64 0, i64 %55
  %57 = load i32, i32* %7, align 4
  %58 = add nsw i32 %57, 1
  %59 = sext i32 %58 to i64
  %60 = getelementptr inbounds [100 x i8], [100 x i8]* %56, i64 0, i64 %59
  %61 = load i8, i8* %60, align 1
  %62 = sext i8 %61 to i32
  %63 = icmp eq i32 %62, 64
  br i1 %63, label %100, label %64

64:                                               ; preds = %52
  %65 = getelementptr inbounds [2 x [100 x [100 x i8]]], [2 x [100 x [100 x i8]]]* %8, i64 0, i64 0
  %66 = load i32, i32* %5, align 4
  %67 = sext i32 %66 to i64
  %68 = getelementptr inbounds [100 x [100 x i8]], [100 x [100 x i8]]* %65, i64 0, i64 %67
  %69 = load i32, i32* %7, align 4
  %70 = sub nsw i32 %69, 1
  %71 = sext i32 %70 to i64
  %72 = getelementptr inbounds [100 x i8], [100 x i8]* %68, i64 0, i64 %71
  %73 = load i8, i8* %72, align 1
  %74 = sext i8 %73 to i32
  %75 = icmp eq i32 %74, 64
  br i1 %75, label %100, label %76

76:                                               ; preds = %64
  %77 = getelementptr inbounds [2 x [100 x [100 x i8]]], [2 x [100 x [100 x i8]]]* %8, i64 0, i64 0
  %78 = load i32, i32* %5, align 4
  %79 = add nsw i32 %78, 1
  %80 = sext i32 %79 to i64
  %81 = getelementptr inbounds [100 x [100 x i8]], [100 x [100 x i8]]* %77, i64 0, i64 %80
  %82 = load i32, i32* %7, align 4
  %83 = sext i32 %82 to i64
  %84 = getelementptr inbounds [100 x i8], [100 x i8]* %81, i64 0, i64 %83
  %85 = load i8, i8* %84, align 1
  %86 = sext i8 %85 to i32
  %87 = icmp eq i32 %86, 64
  br i1 %87, label %100, label %88

88:                                               ; preds = %76
  %89 = getelementptr inbounds [2 x [100 x [100 x i8]]], [2 x [100 x [100 x i8]]]* %8, i64 0, i64 0
  %90 = load i32, i32* %5, align 4
  %91 = sub nsw i32 %90, 1
  %92 = sext i32 %91 to i64
  %93 = getelementptr inbounds [100 x [100 x i8]], [100 x [100 x i8]]* %89, i64 0, i64 %92
  %94 = load i32, i32* %7, align 4
  %95 = sext i32 %94 to i64
  %96 = getelementptr inbounds [100 x i8], [100 x i8]* %93, i64 0, i64 %95
  %97 = load i8, i8* %96, align 1
  %98 = sext i8 %97 to i32
  %99 = icmp eq i32 %98, 64
  br i1 %99, label %100, label %108

100:                                              ; preds = %88, %76, %64, %52
  %101 = getelementptr inbounds [2 x [100 x [100 x i8]]], [2 x [100 x [100 x i8]]]* %8, i64 0, i64 1
  %102 = load i32, i32* %5, align 4
  %103 = sext i32 %102 to i64
  %104 = getelementptr inbounds [100 x [100 x i8]], [100 x [100 x i8]]* %101, i64 0, i64 %103
  %105 = load i32, i32* %7, align 4
  %106 = sext i32 %105 to i64
  %107 = getelementptr inbounds [100 x i8], [100 x i8]* %104, i64 0, i64 %106
  store i8 64, i8* %107, align 1
  br label %108

108:                                              ; preds = %100, %88, %41
  br label %109

109:                                              ; preds = %108
  %110 = load i32, i32* %7, align 4
  %111 = add nsw i32 %110, 1
  store i32 %111, i32* %7, align 4
  br label %37

112:                                              ; preds = %37
  br label %113

113:                                              ; preds = %112
  %114 = load i32, i32* %5, align 4
  %115 = add nsw i32 %114, 1
  store i32 %115, i32* %5, align 4
  br label %32

116:                                              ; preds = %32
  store i32 0, i32* %5, align 4
  br label %117

117:                                              ; preds = %146, %116
  %118 = load i32, i32* %5, align 4
  %119 = load i32, i32* %2, align 4
  %120 = icmp slt i32 %118, %119
  br i1 %120, label %121, label %149

121:                                              ; preds = %117
  store i32 0, i32* %7, align 4
  br label %122

122:                                              ; preds = %142, %121
  %123 = load i32, i32* %7, align 4
  %124 = load i32, i32* %2, align 4
  %125 = icmp slt i32 %123, %124
  br i1 %125, label %126, label %145

126:                                              ; preds = %122
  %127 = getelementptr inbounds [2 x [100 x [100 x i8]]], [2 x [100 x [100 x i8]]]* %8, i64 0, i64 1
  %128 = load i32, i32* %5, align 4
  %129 = sext i32 %128 to i64
  %130 = getelementptr inbounds [100 x [100 x i8]], [100 x [100 x i8]]* %127, i64 0, i64 %129
  %131 = load i32, i32* %7, align 4
  %132 = sext i32 %131 to i64
  %133 = getelementptr inbounds [100 x i8], [100 x i8]* %130, i64 0, i64 %132
  %134 = load i8, i8* %133, align 1
  %135 = getelementptr inbounds [2 x [100 x [100 x i8]]], [2 x [100 x [100 x i8]]]* %8, i64 0, i64 0
  %136 = load i32, i32* %5, align 4
  %137 = sext i32 %136 to i64
  %138 = getelementptr inbounds [100 x [100 x i8]], [100 x [100 x i8]]* %135, i64 0, i64 %137
  %139 = load i32, i32* %7, align 4
  %140 = sext i32 %139 to i64
  %141 = getelementptr inbounds [100 x i8], [100 x i8]* %138, i64 0, i64 %140
  store i8 %134, i8* %141, align 1
  br label %142

142:                                              ; preds = %126
  %143 = load i32, i32* %7, align 4
  %144 = add nsw i32 %143, 1
  store i32 %144, i32* %7, align 4
  br label %122

145:                                              ; preds = %122
  br label %146

146:                                              ; preds = %145
  %147 = load i32, i32* %5, align 4
  %148 = add nsw i32 %147, 1
  store i32 %148, i32* %5, align 4
  br label %117

149:                                              ; preds = %117
  br label %150

150:                                              ; preds = %149
  %151 = load i32, i32* %4, align 4
  %152 = add nsw i32 %151, 1
  store i32 %152, i32* %4, align 4
  br label %27

153:                                              ; preds = %27
  store i32 0, i32* %4, align 4
  store i32 0, i32* %5, align 4
  br label %154

154:                                              ; preds = %182, %153
  %155 = load i32, i32* %5, align 4
  %156 = load i32, i32* %2, align 4
  %157 = icmp slt i32 %155, %156
  br i1 %157, label %158, label %185

158:                                              ; preds = %154
  store i32 0, i32* %7, align 4
  br label %159

159:                                              ; preds = %178, %158
  %160 = load i32, i32* %7, align 4
  %161 = load i32, i32* %2, align 4
  %162 = icmp slt i32 %160, %161
  br i1 %162, label %163, label %181

163:                                              ; preds = %159
  %164 = getelementptr inbounds [2 x [100 x [100 x i8]]], [2 x [100 x [100 x i8]]]* %8, i64 0, i64 0
  %165 = load i32, i32* %5, align 4
  %166 = sext i32 %165 to i64
  %167 = getelementptr inbounds [100 x [100 x i8]], [100 x [100 x i8]]* %164, i64 0, i64 %166
  %168 = load i32, i32* %7, align 4
  %169 = sext i32 %168 to i64
  %170 = getelementptr inbounds [100 x i8], [100 x i8]* %167, i64 0, i64 %169
  %171 = load i8, i8* %170, align 1
  %172 = sext i8 %171 to i32
  %173 = icmp eq i32 %172, 64
  br i1 %173, label %174, label %177

174:                                              ; preds = %163
  %175 = load i32, i32* %4, align 4
  %176 = add nsw i32 %175, 1
  store i32 %176, i32* %4, align 4
  br label %177

177:                                              ; preds = %174, %163
  br label %178

178:                                              ; preds = %177
  %179 = load i32, i32* %7, align 4
  %180 = add nsw i32 %179, 1
  store i32 %180, i32* %7, align 4
  br label %159

181:                                              ; preds = %159
  br label %182

182:                                              ; preds = %181
  %183 = load i32, i32* %5, align 4
  %184 = add nsw i32 %183, 1
  store i32 %184, i32* %5, align 4
  br label %154

185:                                              ; preds = %154
  %186 = load i32, i32* %4, align 4
  %187 = call i32 (i8*, ...) @printf(i8* getelementptr inbounds ([3 x i8], [3 x i8]* @.str, i64 0, i64 0), i32 %186)
  %188 = load i32, i32* %1, align 4
  ret i32 %188
}